
MotorControl.elf:     file format elf32-avr

Sections:
Idx Name          Size      VMA       LMA       File off  Algn
  0 .text         000006d0  00000000  00000000  00000094  2**1
                  CONTENTS, ALLOC, LOAD, READONLY, CODE
  1 .data         000000c8  00800060  000006d0  00000764  2**0
                  CONTENTS, ALLOC, LOAD, DATA
  2 .bss          00000009  00800128  00800128  0000082c  2**0
                  ALLOC
  3 .comment      00000030  00000000  00000000  0000082c  2**0
                  CONTENTS, READONLY
  4 .note.gnu.avr.deviceinfo 0000003c  00000000  00000000  0000085c  2**2
                  CONTENTS, READONLY
  5 .debug_info   00000420  00000000  00000000  00000898  2**0
                  CONTENTS, READONLY, DEBUGGING
  6 .debug_abbrev 000003e8  00000000  00000000  00000cb8  2**0
                  CONTENTS, READONLY, DEBUGGING
  7 .debug_line   000000f1  00000000  00000000  000010a0  2**0
                  CONTENTS, READONLY, DEBUGGING
  8 .debug_str    00000169  00000000  00000000  00001191  2**0
                  CONTENTS, READONLY, DEBUGGING

Disassembly of section .text:

00000000 <__vectors>:
   0:	0e c0       	rjmp	.+28     	; 0x1e <__ctors_end>
   2:	28 c0       	rjmp	.+80     	; 0x54 <__bad_interrupt>
   4:	27 c0       	rjmp	.+78     	; 0x54 <__bad_interrupt>
   6:	26 c0       	rjmp	.+76     	; 0x54 <__bad_interrupt>
   8:	25 c0       	rjmp	.+74     	; 0x54 <__bad_interrupt>
   a:	25 c0       	rjmp	.+74     	; 0x56 <__vector_5>
   c:	23 c0       	rjmp	.+70     	; 0x54 <__bad_interrupt>
   e:	22 c0       	rjmp	.+68     	; 0x54 <__bad_interrupt>
  10:	21 c0       	rjmp	.+66     	; 0x54 <__bad_interrupt>
  12:	20 c0       	rjmp	.+64     	; 0x54 <__bad_interrupt>
  14:	1f c0       	rjmp	.+62     	; 0x54 <__bad_interrupt>
  16:	1e c0       	rjmp	.+60     	; 0x54 <__bad_interrupt>
  18:	1d c0       	rjmp	.+58     	; 0x54 <__bad_interrupt>
  1a:	1c c0       	rjmp	.+56     	; 0x54 <__bad_interrupt>
  1c:	1b c0       	rjmp	.+54     	; 0x54 <__bad_interrupt>

0000001e <__ctors_end>:
  1e:	11 24       	eor	r1, r1
  20:	1f be       	out	0x3f, r1	; 63
  22:	cf e5       	ldi	r28, 0x5F	; 95
  24:	d1 e0       	ldi	r29, 0x01	; 1
  26:	de bf       	out	0x3e, r29	; 62
  28:	cd bf       	out	0x3d, r28	; 61

0000002a <__do_copy_data>:
  2a:	11 e0       	ldi	r17, 0x01	; 1
  2c:	a0 e6       	ldi	r26, 0x60	; 96
  2e:	b0 e0       	ldi	r27, 0x00	; 0
  30:	e0 ed       	ldi	r30, 0xD0	; 208
  32:	f6 e0       	ldi	r31, 0x06	; 6
  34:	02 c0       	rjmp	.+4      	; 0x3a <__do_copy_data+0x10>
  36:	05 90       	lpm	r0, Z+
  38:	0d 92       	st	X+, r0
  3a:	a8 32       	cpi	r26, 0x28	; 40
  3c:	b1 07       	cpc	r27, r17
  3e:	d9 f7       	brne	.-10     	; 0x36 <__do_copy_data+0xc>

00000040 <__do_clear_bss>:
  40:	21 e0       	ldi	r18, 0x01	; 1
  42:	a8 e2       	ldi	r26, 0x28	; 40
  44:	b1 e0       	ldi	r27, 0x01	; 1
  46:	01 c0       	rjmp	.+2      	; 0x4a <.do_clear_bss_start>

00000048 <.do_clear_bss_loop>:
  48:	1d 92       	st	X+, r1

0000004a <.do_clear_bss_start>:
  4a:	a1 33       	cpi	r26, 0x31	; 49
  4c:	b2 07       	cpc	r27, r18
  4e:	e1 f7       	brne	.-8      	; 0x48 <.do_clear_bss_loop>
  50:	58 d0       	rcall	.+176    	; 0x102 <main>
  52:	3c c3       	rjmp	.+1656   	; 0x6cc <_exit>

00000054 <__bad_interrupt>:
  54:	d5 cf       	rjmp	.-86     	; 0x0 <__vectors>

00000056 <__vector_5>:
  56:	1f 92       	push	r1
  58:	0f 92       	push	r0
  5a:	00 90 5f 00 	lds	r0, 0x005F	; 0x80005f <__EEPROM_REGION_LENGTH__+0x7f005f>
  5e:	0f 92       	push	r0
  60:	11 24       	eor	r1, r1
  62:	2f 93       	push	r18
  64:	3f 93       	push	r19
  66:	4f 93       	push	r20
  68:	5f 93       	push	r21
  6a:	6f 93       	push	r22
  6c:	7f 93       	push	r23
  6e:	8f 93       	push	r24
  70:	9f 93       	push	r25
  72:	af 93       	push	r26
  74:	bf 93       	push	r27
  76:	ef 93       	push	r30
  78:	ff 93       	push	r31
  7a:	cf 93       	push	r28
  7c:	df 93       	push	r29
  7e:	cd b7       	in	r28, 0x3d	; 61
  80:	de b7       	in	r29, 0x3e	; 62
  82:	80 91 2b 01 	lds	r24, 0x012B	; 0x80012b <_ZZ10__vector_5E1i>
  86:	90 91 2c 01 	lds	r25, 0x012C	; 0x80012c <_ZZ10__vector_5E1i+0x1>
  8a:	01 96       	adiw	r24, 0x01	; 1
  8c:	90 93 2c 01 	sts	0x012C, r25	; 0x80012c <_ZZ10__vector_5E1i+0x1>
  90:	80 93 2b 01 	sts	0x012B, r24	; 0x80012b <_ZZ10__vector_5E1i>
  94:	80 91 2b 01 	lds	r24, 0x012B	; 0x80012b <_ZZ10__vector_5E1i>
  98:	90 91 2c 01 	lds	r25, 0x012C	; 0x80012c <_ZZ10__vector_5E1i+0x1>
  9c:	84 38       	cpi	r24, 0x84	; 132
  9e:	9e 41       	sbci	r25, 0x1E	; 30
  a0:	d8 f0       	brcs	.+54     	; 0xd8 <__vector_5+0x82>
  a2:	10 92 2c 01 	sts	0x012C, r1	; 0x80012c <_ZZ10__vector_5E1i+0x1>
  a6:	10 92 2b 01 	sts	0x012B, r1	; 0x80012b <_ZZ10__vector_5E1i>
  aa:	80 91 29 01 	lds	r24, 0x0129	; 0x800129 <sekunden>
  ae:	90 91 2a 01 	lds	r25, 0x012A	; 0x80012a <sekunden+0x1>
  b2:	01 96       	adiw	r24, 0x01	; 1
  b4:	90 93 2a 01 	sts	0x012A, r25	; 0x80012a <sekunden+0x1>
  b8:	80 93 29 01 	sts	0x0129, r24	; 0x800129 <sekunden>
  bc:	80 91 29 01 	lds	r24, 0x0129	; 0x800129 <sekunden>
  c0:	90 91 2a 01 	lds	r25, 0x012A	; 0x80012a <sekunden+0x1>
  c4:	81 36       	cpi	r24, 0x61	; 97
  c6:	99 40       	sbci	r25, 0x09	; 9
  c8:	38 f0       	brcs	.+14     	; 0xd8 <__vector_5+0x82>
  ca:	80 e6       	ldi	r24, 0x60	; 96
  cc:	99 e0       	ldi	r25, 0x09	; 9
  ce:	90 93 2a 01 	sts	0x012A, r25	; 0x80012a <sekunden+0x1>
  d2:	80 93 29 01 	sts	0x0129, r24	; 0x800129 <sekunden>
  d6:	b6 d1       	rcall	.+876    	; 0x444 <_Z10toggleModev>
  d8:	00 00       	nop
  da:	df 91       	pop	r29
  dc:	cf 91       	pop	r28
  de:	ff 91       	pop	r31
  e0:	ef 91       	pop	r30
  e2:	bf 91       	pop	r27
  e4:	af 91       	pop	r26
  e6:	9f 91       	pop	r25
  e8:	8f 91       	pop	r24
  ea:	7f 91       	pop	r23
  ec:	6f 91       	pop	r22
  ee:	5f 91       	pop	r21
  f0:	4f 91       	pop	r20
  f2:	3f 91       	pop	r19
  f4:	2f 91       	pop	r18
  f6:	0f 90       	pop	r0
  f8:	00 92 5f 00 	sts	0x005F, r0	; 0x80005f <__EEPROM_REGION_LENGTH__+0x7f005f>
  fc:	0f 90       	pop	r0
  fe:	1f 90       	pop	r1
 100:	18 95       	reti

00000102 <main>:
 102:	1f 93       	push	r17
 104:	cf 93       	push	r28
 106:	df 93       	push	r29
 108:	00 d0       	rcall	.+0      	; 0x10a <main+0x8>
 10a:	00 d0       	rcall	.+0      	; 0x10c <main+0xa>
 10c:	1f 92       	push	r1
 10e:	cd b7       	in	r28, 0x3d	; 61
 110:	de b7       	in	r29, 0x3e	; 62
 112:	19 82       	std	Y+1, r1	; 0x01
 114:	80 e8       	ldi	r24, 0x80	; 128
 116:	8a 83       	std	Y+2, r24	; 0x02
 118:	80 e8       	ldi	r24, 0x80	; 128
 11a:	8b 83       	std	Y+3, r24	; 0x03
 11c:	8f e7       	ldi	r24, 0x7F	; 127
 11e:	8c 83       	std	Y+4, r24	; 0x04
 120:	85 e0       	ldi	r24, 0x05	; 5
 122:	8d 83       	std	Y+5, r24	; 0x05
 124:	a7 d1       	rcall	.+846    	; 0x474 <_Z4initv>
 126:	f6 d1       	rcall	.+1004   	; 0x514 <_Z7initADCv>
 128:	0b d2       	rcall	.+1046   	; 0x540 <_Z9initTimerv>
 12a:	ab d0       	rcall	.+342    	; 0x282 <_Z8readKeysv>
 12c:	89 83       	std	Y+1, r24	; 0x01
 12e:	99 81       	ldd	r25, Y+1	; 0x01
 130:	8a 81       	ldd	r24, Y+2	; 0x02
 132:	89 0f       	add	r24, r25
 134:	8a 83       	std	Y+2, r24	; 0x02
 136:	85 e2       	ldi	r24, 0x25	; 37
 138:	90 e0       	ldi	r25, 0x00	; 0
 13a:	fc 01       	movw	r30, r24
 13c:	80 81       	ld	r24, Z
 13e:	8c 83       	std	Y+4, r24	; 0x04
 140:	80 91 28 01 	lds	r24, 0x0128	; 0x800128 <__data_end>
 144:	88 23       	and	r24, r24
 146:	19 f4       	brne	.+6      	; 0x14e <main+0x4c>
 148:	8a 81       	ldd	r24, Y+2	; 0x02
 14a:	8b 83       	std	Y+3, r24	; 0x03
 14c:	06 c0       	rjmp	.+12     	; 0x15a <main+0x58>
 14e:	80 91 29 01 	lds	r24, 0x0129	; 0x800129 <sekunden>
 152:	90 91 2a 01 	lds	r25, 0x012A	; 0x80012a <sekunden+0x1>
 156:	20 d2       	rcall	.+1088   	; 0x598 <_Z7programj>
 158:	8b 83       	std	Y+3, r24	; 0x03
 15a:	8b 81       	ldd	r24, Y+3	; 0x03
 15c:	88 2f       	mov	r24, r24
 15e:	90 e0       	ldi	r25, 0x00	; 0
 160:	09 2e       	mov	r0, r25
 162:	00 0c       	add	r0, r0
 164:	aa 0b       	sbc	r26, r26
 166:	bb 0b       	sbc	r27, r27
 168:	bc 01       	movw	r22, r24
 16a:	cd 01       	movw	r24, r26
 16c:	38 d2       	rcall	.+1136   	; 0x5de <__floatsisf>
 16e:	dc 01       	movw	r26, r24
 170:	cb 01       	movw	r24, r22
 172:	11 e0       	ldi	r17, 0x01	; 1
 174:	2a e0       	ldi	r18, 0x0A	; 10
 176:	37 ed       	ldi	r19, 0xD7	; 215
 178:	43 e4       	ldi	r20, 0x43	; 67
 17a:	50 e4       	ldi	r21, 0x40	; 64
 17c:	bc 01       	movw	r22, r24
 17e:	cd 01       	movw	r24, r26
 180:	28 d2       	rcall	.+1104   	; 0x5d2 <__cmpsf2>
 182:	88 23       	and	r24, r24
 184:	0c f0       	brlt	.+2      	; 0x188 <__stack+0x29>
 186:	10 e0       	ldi	r17, 0x00	; 0
 188:	11 23       	and	r17, r17
 18a:	19 f0       	breq	.+6      	; 0x192 <__stack+0x33>
 18c:	83 e0       	ldi	r24, 0x03	; 3
 18e:	8b 83       	std	Y+3, r24	; 0x03
 190:	1b c0       	rjmp	.+54     	; 0x1c8 <__stack+0x69>
 192:	8b 81       	ldd	r24, Y+3	; 0x03
 194:	88 2f       	mov	r24, r24
 196:	90 e0       	ldi	r25, 0x00	; 0
 198:	09 2e       	mov	r0, r25
 19a:	00 0c       	add	r0, r0
 19c:	aa 0b       	sbc	r26, r26
 19e:	bb 0b       	sbc	r27, r27
 1a0:	bc 01       	movw	r22, r24
 1a2:	cd 01       	movw	r24, r26
 1a4:	1c d2       	rcall	.+1080   	; 0x5de <__floatsisf>
 1a6:	dc 01       	movw	r26, r24
 1a8:	cb 01       	movw	r24, r22
 1aa:	11 e0       	ldi	r17, 0x01	; 1
 1ac:	24 ea       	ldi	r18, 0xA4	; 164
 1ae:	30 ef       	ldi	r19, 0xF0	; 240
 1b0:	4b e7       	ldi	r20, 0x7B	; 123
 1b2:	53 e4       	ldi	r21, 0x43	; 67
 1b4:	bc 01       	movw	r22, r24
 1b6:	cd 01       	movw	r24, r26
 1b8:	71 d2       	rcall	.+1250   	; 0x69c <__gesf2>
 1ba:	18 16       	cp	r1, r24
 1bc:	0c f0       	brlt	.+2      	; 0x1c0 <__stack+0x61>
 1be:	10 e0       	ldi	r17, 0x00	; 0
 1c0:	11 23       	and	r17, r17
 1c2:	11 f0       	breq	.+4      	; 0x1c8 <__stack+0x69>
 1c4:	8b ef       	ldi	r24, 0xFB	; 251
 1c6:	8b 83       	std	Y+3, r24	; 0x03
 1c8:	8b 81       	ldd	r24, Y+3	; 0x03
 1ca:	28 2f       	mov	r18, r24
 1cc:	30 e0       	ldi	r19, 0x00	; 0
 1ce:	8c 81       	ldd	r24, Y+4	; 0x04
 1d0:	88 2f       	mov	r24, r24
 1d2:	90 e0       	ldi	r25, 0x00	; 0
 1d4:	28 1b       	sub	r18, r24
 1d6:	39 0b       	sbc	r19, r25
 1d8:	8d 81       	ldd	r24, Y+5	; 0x05
 1da:	88 2f       	mov	r24, r24
 1dc:	90 e0       	ldi	r25, 0x00	; 0
 1de:	41 e0       	ldi	r20, 0x01	; 1
 1e0:	82 17       	cp	r24, r18
 1e2:	93 07       	cpc	r25, r19
 1e4:	0c f0       	brlt	.+2      	; 0x1e8 <__stack+0x89>
 1e6:	40 e0       	ldi	r20, 0x00	; 0
 1e8:	44 23       	and	r20, r20
 1ea:	99 f0       	breq	.+38     	; 0x212 <__stack+0xb3>
 1ec:	88 e3       	ldi	r24, 0x38	; 56
 1ee:	90 e0       	ldi	r25, 0x00	; 0
 1f0:	28 e3       	ldi	r18, 0x38	; 56
 1f2:	30 e0       	ldi	r19, 0x00	; 0
 1f4:	f9 01       	movw	r30, r18
 1f6:	20 81       	ld	r18, Z
 1f8:	20 61       	ori	r18, 0x10	; 16
 1fa:	fc 01       	movw	r30, r24
 1fc:	20 83       	st	Z, r18
 1fe:	88 e3       	ldi	r24, 0x38	; 56
 200:	90 e0       	ldi	r25, 0x00	; 0
 202:	28 e3       	ldi	r18, 0x38	; 56
 204:	30 e0       	ldi	r19, 0x00	; 0
 206:	f9 01       	movw	r30, r18
 208:	20 81       	ld	r18, Z
 20a:	27 7f       	andi	r18, 0xF7	; 247
 20c:	fc 01       	movw	r30, r24
 20e:	20 83       	st	Z, r18
 210:	8c cf       	rjmp	.-232    	; 0x12a <main+0x28>
 212:	8c 81       	ldd	r24, Y+4	; 0x04
 214:	28 2f       	mov	r18, r24
 216:	30 e0       	ldi	r19, 0x00	; 0
 218:	8b 81       	ldd	r24, Y+3	; 0x03
 21a:	88 2f       	mov	r24, r24
 21c:	90 e0       	ldi	r25, 0x00	; 0
 21e:	28 1b       	sub	r18, r24
 220:	39 0b       	sbc	r19, r25
 222:	8d 81       	ldd	r24, Y+5	; 0x05
 224:	88 2f       	mov	r24, r24
 226:	90 e0       	ldi	r25, 0x00	; 0
 228:	41 e0       	ldi	r20, 0x01	; 1
 22a:	82 17       	cp	r24, r18
 22c:	93 07       	cpc	r25, r19
 22e:	0c f0       	brlt	.+2      	; 0x232 <__stack+0xd3>
 230:	40 e0       	ldi	r20, 0x00	; 0
 232:	44 23       	and	r20, r20
 234:	99 f0       	breq	.+38     	; 0x25c <__stack+0xfd>
 236:	88 e3       	ldi	r24, 0x38	; 56
 238:	90 e0       	ldi	r25, 0x00	; 0
 23a:	28 e3       	ldi	r18, 0x38	; 56
 23c:	30 e0       	ldi	r19, 0x00	; 0
 23e:	f9 01       	movw	r30, r18
 240:	20 81       	ld	r18, Z
 242:	28 60       	ori	r18, 0x08	; 8
 244:	fc 01       	movw	r30, r24
 246:	20 83       	st	Z, r18
 248:	88 e3       	ldi	r24, 0x38	; 56
 24a:	90 e0       	ldi	r25, 0x00	; 0
 24c:	28 e3       	ldi	r18, 0x38	; 56
 24e:	30 e0       	ldi	r19, 0x00	; 0
 250:	f9 01       	movw	r30, r18
 252:	20 81       	ld	r18, Z
 254:	2f 7e       	andi	r18, 0xEF	; 239
 256:	fc 01       	movw	r30, r24
 258:	20 83       	st	Z, r18
 25a:	67 cf       	rjmp	.-306    	; 0x12a <main+0x28>
 25c:	88 e3       	ldi	r24, 0x38	; 56
 25e:	90 e0       	ldi	r25, 0x00	; 0
 260:	28 e3       	ldi	r18, 0x38	; 56
 262:	30 e0       	ldi	r19, 0x00	; 0
 264:	f9 01       	movw	r30, r18
 266:	20 81       	ld	r18, Z
 268:	27 7f       	andi	r18, 0xF7	; 247
 26a:	fc 01       	movw	r30, r24
 26c:	20 83       	st	Z, r18
 26e:	88 e3       	ldi	r24, 0x38	; 56
 270:	90 e0       	ldi	r25, 0x00	; 0
 272:	28 e3       	ldi	r18, 0x38	; 56
 274:	30 e0       	ldi	r19, 0x00	; 0
 276:	f9 01       	movw	r30, r18
 278:	20 81       	ld	r18, Z
 27a:	2f 7e       	andi	r18, 0xEF	; 239
 27c:	fc 01       	movw	r30, r24
 27e:	20 83       	st	Z, r18
 280:	54 cf       	rjmp	.-344    	; 0x12a <main+0x28>

00000282 <_Z8readKeysv>:
 282:	cf 93       	push	r28
 284:	df 93       	push	r29
 286:	cd b7       	in	r28, 0x3d	; 61
 288:	de b7       	in	r29, 0x3e	; 62
 28a:	86 e3       	ldi	r24, 0x36	; 54
 28c:	90 e0       	ldi	r25, 0x00	; 0
 28e:	fc 01       	movw	r30, r24
 290:	80 81       	ld	r24, Z
 292:	88 2f       	mov	r24, r24
 294:	90 e0       	ldi	r25, 0x00	; 0
 296:	81 70       	andi	r24, 0x01	; 1
 298:	99 27       	eor	r25, r25
 29a:	21 e0       	ldi	r18, 0x01	; 1
 29c:	89 2b       	or	r24, r25
 29e:	09 f4       	brne	.+2      	; 0x2a2 <_Z8readKeysv+0x20>
 2a0:	20 e0       	ldi	r18, 0x00	; 0
 2a2:	20 93 2d 01 	sts	0x012D, r18	; 0x80012d <_ZZ8readKeysvE2up>
 2a6:	86 e3       	ldi	r24, 0x36	; 54
 2a8:	90 e0       	ldi	r25, 0x00	; 0
 2aa:	fc 01       	movw	r30, r24
 2ac:	80 81       	ld	r24, Z
 2ae:	88 2f       	mov	r24, r24
 2b0:	90 e0       	ldi	r25, 0x00	; 0
 2b2:	82 70       	andi	r24, 0x02	; 2
 2b4:	99 27       	eor	r25, r25
 2b6:	21 e0       	ldi	r18, 0x01	; 1
 2b8:	89 2b       	or	r24, r25
 2ba:	09 f4       	brne	.+2      	; 0x2be <_Z8readKeysv+0x3c>
 2bc:	20 e0       	ldi	r18, 0x00	; 0
 2be:	20 93 2e 01 	sts	0x012E, r18	; 0x80012e <_ZZ8readKeysvE4down>
 2c2:	80 91 2f 01 	lds	r24, 0x012F	; 0x80012f <_ZZ8readKeysvE10keyCounter>
 2c6:	8f 5f       	subi	r24, 0xFF	; 255
 2c8:	80 93 2f 01 	sts	0x012F, r24	; 0x80012f <_ZZ8readKeysvE10keyCounter>
 2cc:	80 91 30 01 	lds	r24, 0x0130	; 0x800130 <_ZZ8readKeysvE8keyState>
 2d0:	88 23       	and	r24, r24
 2d2:	09 f0       	breq	.+2      	; 0x2d6 <_Z8readKeysv+0x54>
 2d4:	49 c0       	rjmp	.+146    	; 0x368 <_Z8readKeysv+0xe6>
 2d6:	80 91 2d 01 	lds	r24, 0x012D	; 0x80012d <_ZZ8readKeysvE2up>
 2da:	28 2f       	mov	r18, r24
 2dc:	30 e0       	ldi	r19, 0x00	; 0
 2de:	80 91 2e 01 	lds	r24, 0x012E	; 0x80012e <_ZZ8readKeysvE4down>
 2e2:	88 2f       	mov	r24, r24
 2e4:	90 e0       	ldi	r25, 0x00	; 0
 2e6:	82 23       	and	r24, r18
 2e8:	93 23       	and	r25, r19
 2ea:	21 e0       	ldi	r18, 0x01	; 1
 2ec:	89 2b       	or	r24, r25
 2ee:	09 f4       	brne	.+2      	; 0x2f2 <_Z8readKeysv+0x70>
 2f0:	20 e0       	ldi	r18, 0x00	; 0
 2f2:	22 23       	and	r18, r18
 2f4:	39 f0       	breq	.+14     	; 0x304 <_Z8readKeysv+0x82>
 2f6:	83 e0       	ldi	r24, 0x03	; 3
 2f8:	80 93 30 01 	sts	0x0130, r24	; 0x800130 <_ZZ8readKeysvE8keyState>
 2fc:	10 92 2f 01 	sts	0x012F, r1	; 0x80012f <_ZZ8readKeysvE10keyCounter>
 300:	80 e0       	ldi	r24, 0x00	; 0
 302:	9d c0       	rjmp	.+314    	; 0x43e <__LOCK_REGION_LENGTH__+0x3e>
 304:	80 91 2d 01 	lds	r24, 0x012D	; 0x80012d <_ZZ8readKeysvE2up>
 308:	28 2f       	mov	r18, r24
 30a:	30 e0       	ldi	r19, 0x00	; 0
 30c:	80 91 2e 01 	lds	r24, 0x012E	; 0x80012e <_ZZ8readKeysvE4down>
 310:	88 2f       	mov	r24, r24
 312:	90 e0       	ldi	r25, 0x00	; 0
 314:	80 95       	com	r24
 316:	90 95       	com	r25
 318:	82 23       	and	r24, r18
 31a:	93 23       	and	r25, r19
 31c:	21 e0       	ldi	r18, 0x01	; 1
 31e:	89 2b       	or	r24, r25
 320:	09 f4       	brne	.+2      	; 0x324 <_Z8readKeysv+0xa2>
 322:	20 e0       	ldi	r18, 0x00	; 0
 324:	22 23       	and	r18, r18
 326:	39 f0       	breq	.+14     	; 0x336 <_Z8readKeysv+0xb4>
 328:	81 e0       	ldi	r24, 0x01	; 1
 32a:	80 93 30 01 	sts	0x0130, r24	; 0x800130 <_ZZ8readKeysvE8keyState>
 32e:	10 92 2f 01 	sts	0x012F, r1	; 0x80012f <_ZZ8readKeysvE10keyCounter>
 332:	80 e0       	ldi	r24, 0x00	; 0
 334:	84 c0       	rjmp	.+264    	; 0x43e <__LOCK_REGION_LENGTH__+0x3e>
 336:	80 91 2e 01 	lds	r24, 0x012E	; 0x80012e <_ZZ8readKeysvE4down>
 33a:	28 2f       	mov	r18, r24
 33c:	30 e0       	ldi	r19, 0x00	; 0
 33e:	80 91 2d 01 	lds	r24, 0x012D	; 0x80012d <_ZZ8readKeysvE2up>
 342:	88 2f       	mov	r24, r24
 344:	90 e0       	ldi	r25, 0x00	; 0
 346:	80 95       	com	r24
 348:	90 95       	com	r25
 34a:	82 23       	and	r24, r18
 34c:	93 23       	and	r25, r19
 34e:	21 e0       	ldi	r18, 0x01	; 1
 350:	89 2b       	or	r24, r25
 352:	09 f4       	brne	.+2      	; 0x356 <_Z8readKeysv+0xd4>
 354:	20 e0       	ldi	r18, 0x00	; 0
 356:	22 23       	and	r18, r18
 358:	39 f0       	breq	.+14     	; 0x368 <_Z8readKeysv+0xe6>
 35a:	82 e0       	ldi	r24, 0x02	; 2
 35c:	80 93 30 01 	sts	0x0130, r24	; 0x800130 <_ZZ8readKeysvE8keyState>
 360:	10 92 2f 01 	sts	0x012F, r1	; 0x80012f <_ZZ8readKeysvE10keyCounter>
 364:	80 e0       	ldi	r24, 0x00	; 0
 366:	6b c0       	rjmp	.+214    	; 0x43e <__LOCK_REGION_LENGTH__+0x3e>
 368:	80 91 30 01 	lds	r24, 0x0130	; 0x800130 <_ZZ8readKeysvE8keyState>
 36c:	91 e0       	ldi	r25, 0x01	; 1
 36e:	81 30       	cpi	r24, 0x01	; 1
 370:	09 f0       	breq	.+2      	; 0x374 <_Z8readKeysv+0xf2>
 372:	90 e0       	ldi	r25, 0x00	; 0
 374:	20 91 2f 01 	lds	r18, 0x012F	; 0x80012f <_ZZ8readKeysvE10keyCounter>
 378:	81 e0       	ldi	r24, 0x01	; 1
 37a:	2c 33       	cpi	r18, 0x3C	; 60
 37c:	08 f4       	brcc	.+2      	; 0x380 <_Z8readKeysv+0xfe>
 37e:	80 e0       	ldi	r24, 0x00	; 0
 380:	89 23       	and	r24, r25
 382:	88 23       	and	r24, r24
 384:	81 f0       	breq	.+32     	; 0x3a6 <_Z8readKeysv+0x124>
 386:	80 91 2d 01 	lds	r24, 0x012D	; 0x80012d <_ZZ8readKeysvE2up>
 38a:	88 23       	and	r24, r24
 38c:	31 f0       	breq	.+12     	; 0x39a <_Z8readKeysv+0x118>
 38e:	10 92 30 01 	sts	0x0130, r1	; 0x800130 <_ZZ8readKeysvE8keyState>
 392:	10 92 2f 01 	sts	0x012F, r1	; 0x80012f <_ZZ8readKeysvE10keyCounter>
 396:	81 e0       	ldi	r24, 0x01	; 1
 398:	52 c0       	rjmp	.+164    	; 0x43e <__LOCK_REGION_LENGTH__+0x3e>
 39a:	10 92 30 01 	sts	0x0130, r1	; 0x800130 <_ZZ8readKeysvE8keyState>
 39e:	10 92 2f 01 	sts	0x012F, r1	; 0x80012f <_ZZ8readKeysvE10keyCounter>
 3a2:	80 e0       	ldi	r24, 0x00	; 0
 3a4:	4c c0       	rjmp	.+152    	; 0x43e <__LOCK_REGION_LENGTH__+0x3e>
 3a6:	80 91 30 01 	lds	r24, 0x0130	; 0x800130 <_ZZ8readKeysvE8keyState>
 3aa:	91 e0       	ldi	r25, 0x01	; 1
 3ac:	82 30       	cpi	r24, 0x02	; 2
 3ae:	09 f0       	breq	.+2      	; 0x3b2 <_Z8readKeysv+0x130>
 3b0:	90 e0       	ldi	r25, 0x00	; 0
 3b2:	20 91 2f 01 	lds	r18, 0x012F	; 0x80012f <_ZZ8readKeysvE10keyCounter>
 3b6:	81 e0       	ldi	r24, 0x01	; 1
 3b8:	2c 33       	cpi	r18, 0x3C	; 60
 3ba:	08 f4       	brcc	.+2      	; 0x3be <_Z8readKeysv+0x13c>
 3bc:	80 e0       	ldi	r24, 0x00	; 0
 3be:	89 23       	and	r24, r25
 3c0:	88 23       	and	r24, r24
 3c2:	81 f0       	breq	.+32     	; 0x3e4 <_Z8readKeysv+0x162>
 3c4:	80 91 2e 01 	lds	r24, 0x012E	; 0x80012e <_ZZ8readKeysvE4down>
 3c8:	88 23       	and	r24, r24
 3ca:	31 f0       	breq	.+12     	; 0x3d8 <_Z8readKeysv+0x156>
 3cc:	10 92 30 01 	sts	0x0130, r1	; 0x800130 <_ZZ8readKeysvE8keyState>
 3d0:	10 92 2f 01 	sts	0x012F, r1	; 0x80012f <_ZZ8readKeysvE10keyCounter>
 3d4:	8f ef       	ldi	r24, 0xFF	; 255
 3d6:	33 c0       	rjmp	.+102    	; 0x43e <__LOCK_REGION_LENGTH__+0x3e>
 3d8:	10 92 30 01 	sts	0x0130, r1	; 0x800130 <_ZZ8readKeysvE8keyState>
 3dc:	10 92 2f 01 	sts	0x012F, r1	; 0x80012f <_ZZ8readKeysvE10keyCounter>
 3e0:	80 e0       	ldi	r24, 0x00	; 0
 3e2:	2d c0       	rjmp	.+90     	; 0x43e <__LOCK_REGION_LENGTH__+0x3e>
 3e4:	80 91 30 01 	lds	r24, 0x0130	; 0x800130 <_ZZ8readKeysvE8keyState>
 3e8:	91 e0       	ldi	r25, 0x01	; 1
 3ea:	83 30       	cpi	r24, 0x03	; 3
 3ec:	09 f0       	breq	.+2      	; 0x3f0 <_Z8readKeysv+0x16e>
 3ee:	90 e0       	ldi	r25, 0x00	; 0
 3f0:	20 91 2f 01 	lds	r18, 0x012F	; 0x80012f <_ZZ8readKeysvE10keyCounter>
 3f4:	81 e0       	ldi	r24, 0x01	; 1
 3f6:	2c 33       	cpi	r18, 0x3C	; 60
 3f8:	08 f4       	brcc	.+2      	; 0x3fc <_Z8readKeysv+0x17a>
 3fa:	80 e0       	ldi	r24, 0x00	; 0
 3fc:	89 23       	and	r24, r25
 3fe:	88 23       	and	r24, r24
 400:	e9 f0       	breq	.+58     	; 0x43c <__LOCK_REGION_LENGTH__+0x3c>
 402:	80 91 2d 01 	lds	r24, 0x012D	; 0x80012d <_ZZ8readKeysvE2up>
 406:	28 2f       	mov	r18, r24
 408:	30 e0       	ldi	r19, 0x00	; 0
 40a:	80 91 2e 01 	lds	r24, 0x012E	; 0x80012e <_ZZ8readKeysvE4down>
 40e:	88 2f       	mov	r24, r24
 410:	90 e0       	ldi	r25, 0x00	; 0
 412:	82 23       	and	r24, r18
 414:	93 23       	and	r25, r19
 416:	21 e0       	ldi	r18, 0x01	; 1
 418:	89 2b       	or	r24, r25
 41a:	09 f4       	brne	.+2      	; 0x41e <__LOCK_REGION_LENGTH__+0x1e>
 41c:	20 e0       	ldi	r18, 0x00	; 0
 41e:	22 23       	and	r18, r18
 420:	39 f0       	breq	.+14     	; 0x430 <__LOCK_REGION_LENGTH__+0x30>
 422:	10 92 30 01 	sts	0x0130, r1	; 0x800130 <_ZZ8readKeysvE8keyState>
 426:	10 92 2f 01 	sts	0x012F, r1	; 0x80012f <_ZZ8readKeysvE10keyCounter>
 42a:	0c d0       	rcall	.+24     	; 0x444 <_Z10toggleModev>
 42c:	80 e0       	ldi	r24, 0x00	; 0
 42e:	07 c0       	rjmp	.+14     	; 0x43e <__LOCK_REGION_LENGTH__+0x3e>
 430:	10 92 30 01 	sts	0x0130, r1	; 0x800130 <_ZZ8readKeysvE8keyState>
 434:	10 92 2f 01 	sts	0x012F, r1	; 0x80012f <_ZZ8readKeysvE10keyCounter>
 438:	80 e0       	ldi	r24, 0x00	; 0
 43a:	01 c0       	rjmp	.+2      	; 0x43e <__LOCK_REGION_LENGTH__+0x3e>
 43c:	80 e0       	ldi	r24, 0x00	; 0
 43e:	df 91       	pop	r29
 440:	cf 91       	pop	r28
 442:	08 95       	ret

00000444 <_Z10toggleModev>:
 444:	cf 93       	push	r28
 446:	df 93       	push	r29
 448:	cd b7       	in	r28, 0x3d	; 61
 44a:	de b7       	in	r29, 0x3e	; 62
 44c:	80 91 28 01 	lds	r24, 0x0128	; 0x800128 <__data_end>
 450:	88 23       	and	r24, r24
 452:	49 f4       	brne	.+18     	; 0x466 <_Z10toggleModev+0x22>
 454:	81 e0       	ldi	r24, 0x01	; 1
 456:	80 93 28 01 	sts	0x0128, r24	; 0x800128 <__data_end>
 45a:	10 92 2a 01 	sts	0x012A, r1	; 0x80012a <sekunden+0x1>
 45e:	10 92 29 01 	sts	0x0129, r1	; 0x800129 <sekunden>
 462:	78 94       	sei
 464:	03 c0       	rjmp	.+6      	; 0x46c <_Z10toggleModev+0x28>
 466:	10 92 28 01 	sts	0x0128, r1	; 0x800128 <__data_end>
 46a:	f8 94       	cli
 46c:	00 00       	nop
 46e:	df 91       	pop	r29
 470:	cf 91       	pop	r28
 472:	08 95       	ret

00000474 <_Z4initv>:
 474:	cf 93       	push	r28
 476:	df 93       	push	r29
 478:	cd b7       	in	r28, 0x3d	; 61
 47a:	de b7       	in	r29, 0x3e	; 62
 47c:	87 e3       	ldi	r24, 0x37	; 55
 47e:	90 e0       	ldi	r25, 0x00	; 0
 480:	27 e3       	ldi	r18, 0x37	; 55
 482:	30 e0       	ldi	r19, 0x00	; 0
 484:	f9 01       	movw	r30, r18
 486:	20 81       	ld	r18, Z
 488:	2e 7f       	andi	r18, 0xFE	; 254
 48a:	fc 01       	movw	r30, r24
 48c:	20 83       	st	Z, r18
 48e:	87 e3       	ldi	r24, 0x37	; 55
 490:	90 e0       	ldi	r25, 0x00	; 0
 492:	27 e3       	ldi	r18, 0x37	; 55
 494:	30 e0       	ldi	r19, 0x00	; 0
 496:	f9 01       	movw	r30, r18
 498:	20 81       	ld	r18, Z
 49a:	2d 7f       	andi	r18, 0xFD	; 253
 49c:	fc 01       	movw	r30, r24
 49e:	20 83       	st	Z, r18
 4a0:	87 e3       	ldi	r24, 0x37	; 55
 4a2:	90 e0       	ldi	r25, 0x00	; 0
 4a4:	27 e3       	ldi	r18, 0x37	; 55
 4a6:	30 e0       	ldi	r19, 0x00	; 0
 4a8:	f9 01       	movw	r30, r18
 4aa:	20 81       	ld	r18, Z
 4ac:	2b 7f       	andi	r18, 0xFB	; 251
 4ae:	fc 01       	movw	r30, r24
 4b0:	20 83       	st	Z, r18
 4b2:	88 e3       	ldi	r24, 0x38	; 56
 4b4:	90 e0       	ldi	r25, 0x00	; 0
 4b6:	28 e3       	ldi	r18, 0x38	; 56
 4b8:	30 e0       	ldi	r19, 0x00	; 0
 4ba:	f9 01       	movw	r30, r18
 4bc:	20 81       	ld	r18, Z
 4be:	21 60       	ori	r18, 0x01	; 1
 4c0:	fc 01       	movw	r30, r24
 4c2:	20 83       	st	Z, r18
 4c4:	88 e3       	ldi	r24, 0x38	; 56
 4c6:	90 e0       	ldi	r25, 0x00	; 0
 4c8:	28 e3       	ldi	r18, 0x38	; 56
 4ca:	30 e0       	ldi	r19, 0x00	; 0
 4cc:	f9 01       	movw	r30, r18
 4ce:	20 81       	ld	r18, Z
 4d0:	22 60       	ori	r18, 0x02	; 2
 4d2:	fc 01       	movw	r30, r24
 4d4:	20 83       	st	Z, r18
 4d6:	87 e3       	ldi	r24, 0x37	; 55
 4d8:	90 e0       	ldi	r25, 0x00	; 0
 4da:	27 e3       	ldi	r18, 0x37	; 55
 4dc:	30 e0       	ldi	r19, 0x00	; 0
 4de:	f9 01       	movw	r30, r18
 4e0:	20 81       	ld	r18, Z
 4e2:	20 61       	ori	r18, 0x10	; 16
 4e4:	fc 01       	movw	r30, r24
 4e6:	20 83       	st	Z, r18
 4e8:	87 e3       	ldi	r24, 0x37	; 55
 4ea:	90 e0       	ldi	r25, 0x00	; 0
 4ec:	27 e3       	ldi	r18, 0x37	; 55
 4ee:	30 e0       	ldi	r19, 0x00	; 0
 4f0:	f9 01       	movw	r30, r18
 4f2:	20 81       	ld	r18, Z
 4f4:	28 60       	ori	r18, 0x08	; 8
 4f6:	fc 01       	movw	r30, r24
 4f8:	20 83       	st	Z, r18
 4fa:	87 e3       	ldi	r24, 0x37	; 55
 4fc:	90 e0       	ldi	r25, 0x00	; 0
 4fe:	27 e3       	ldi	r18, 0x37	; 55
 500:	30 e0       	ldi	r19, 0x00	; 0
 502:	f9 01       	movw	r30, r18
 504:	20 81       	ld	r18, Z
 506:	20 62       	ori	r18, 0x20	; 32
 508:	fc 01       	movw	r30, r24
 50a:	20 83       	st	Z, r18
 50c:	00 00       	nop
 50e:	df 91       	pop	r29
 510:	cf 91       	pop	r28
 512:	08 95       	ret

00000514 <_Z7initADCv>:
 514:	cf 93       	push	r28
 516:	df 93       	push	r29
 518:	cd b7       	in	r28, 0x3d	; 61
 51a:	de b7       	in	r29, 0x3e	; 62
 51c:	87 e2       	ldi	r24, 0x27	; 39
 51e:	90 e0       	ldi	r25, 0x00	; 0
 520:	21 e2       	ldi	r18, 0x21	; 33
 522:	fc 01       	movw	r30, r24
 524:	20 83       	st	Z, r18
 526:	86 e2       	ldi	r24, 0x26	; 38
 528:	90 e0       	ldi	r25, 0x00	; 0
 52a:	26 ee       	ldi	r18, 0xE6	; 230
 52c:	fc 01       	movw	r30, r24
 52e:	20 83       	st	Z, r18
 530:	83 e2       	ldi	r24, 0x23	; 35
 532:	90 e0       	ldi	r25, 0x00	; 0
 534:	fc 01       	movw	r30, r24
 536:	10 82       	st	Z, r1
 538:	00 00       	nop
 53a:	df 91       	pop	r29
 53c:	cf 91       	pop	r28
 53e:	08 95       	ret

00000540 <_Z9initTimerv>:
 540:	cf 93       	push	r28
 542:	df 93       	push	r29
 544:	cd b7       	in	r28, 0x3d	; 61
 546:	de b7       	in	r29, 0x3e	; 62
 548:	83 e5       	ldi	r24, 0x53	; 83
 54a:	90 e0       	ldi	r25, 0x00	; 0
 54c:	23 e5       	ldi	r18, 0x53	; 83
 54e:	30 e0       	ldi	r19, 0x00	; 0
 550:	f9 01       	movw	r30, r18
 552:	20 81       	ld	r18, Z
 554:	24 60       	ori	r18, 0x04	; 4
 556:	fc 01       	movw	r30, r24
 558:	20 83       	st	Z, r18
 55a:	83 e5       	ldi	r24, 0x53	; 83
 55c:	90 e0       	ldi	r25, 0x00	; 0
 55e:	23 e5       	ldi	r18, 0x53	; 83
 560:	30 e0       	ldi	r19, 0x00	; 0
 562:	f9 01       	movw	r30, r18
 564:	20 81       	ld	r18, Z
 566:	21 60       	ori	r18, 0x01	; 1
 568:	fc 01       	movw	r30, r24
 56a:	20 83       	st	Z, r18
 56c:	89 e5       	ldi	r24, 0x59	; 89
 56e:	90 e0       	ldi	r25, 0x00	; 0
 570:	29 e5       	ldi	r18, 0x59	; 89
 572:	30 e0       	ldi	r19, 0x00	; 0
 574:	f9 01       	movw	r30, r18
 576:	20 81       	ld	r18, Z
 578:	22 60       	ori	r18, 0x02	; 2
 57a:	fc 01       	movw	r30, r24
 57c:	20 83       	st	Z, r18
 57e:	88 e5       	ldi	r24, 0x58	; 88
 580:	90 e0       	ldi	r25, 0x00	; 0
 582:	28 e5       	ldi	r18, 0x58	; 88
 584:	30 e0       	ldi	r19, 0x00	; 0
 586:	f9 01       	movw	r30, r18
 588:	20 81       	ld	r18, Z
 58a:	22 60       	ori	r18, 0x02	; 2
 58c:	fc 01       	movw	r30, r24
 58e:	20 83       	st	Z, r18
 590:	00 00       	nop
 592:	df 91       	pop	r29
 594:	cf 91       	pop	r28
 596:	08 95       	ret

00000598 <_Z7programj>:
 598:	cf 93       	push	r28
 59a:	df 93       	push	r29
 59c:	00 d0       	rcall	.+0      	; 0x59e <_Z7programj+0x6>
 59e:	1f 92       	push	r1
 5a0:	cd b7       	in	r28, 0x3d	; 61
 5a2:	de b7       	in	r29, 0x3e	; 62
 5a4:	9b 83       	std	Y+3, r25	; 0x03
 5a6:	8a 83       	std	Y+2, r24	; 0x02
 5a8:	8a 81       	ldd	r24, Y+2	; 0x02
 5aa:	9b 81       	ldd	r25, Y+3	; 0x03
 5ac:	2c e0       	ldi	r18, 0x0C	; 12
 5ae:	30 e0       	ldi	r19, 0x00	; 0
 5b0:	b9 01       	movw	r22, r18
 5b2:	78 d0       	rcall	.+240    	; 0x6a4 <__udivmodhi4>
 5b4:	cb 01       	movw	r24, r22
 5b6:	89 83       	std	Y+1, r24	; 0x01
 5b8:	89 81       	ldd	r24, Y+1	; 0x01
 5ba:	88 2f       	mov	r24, r24
 5bc:	90 e0       	ldi	r25, 0x00	; 0
 5be:	80 5a       	subi	r24, 0xA0	; 160
 5c0:	9f 4f       	sbci	r25, 0xFF	; 255
 5c2:	fc 01       	movw	r30, r24
 5c4:	80 81       	ld	r24, Z
 5c6:	0f 90       	pop	r0
 5c8:	0f 90       	pop	r0
 5ca:	0f 90       	pop	r0
 5cc:	df 91       	pop	r29
 5ce:	cf 91       	pop	r28
 5d0:	08 95       	ret

000005d2 <__cmpsf2>:
 5d2:	40 d0       	rcall	.+128    	; 0x654 <__fp_cmp>
 5d4:	08 f4       	brcc	.+2      	; 0x5d8 <__cmpsf2+0x6>
 5d6:	81 e0       	ldi	r24, 0x01	; 1
 5d8:	08 95       	ret

000005da <__floatunsisf>:
 5da:	e8 94       	clt
 5dc:	09 c0       	rjmp	.+18     	; 0x5f0 <__floatsisf+0x12>

000005de <__floatsisf>:
 5de:	97 fb       	bst	r25, 7
 5e0:	3e f4       	brtc	.+14     	; 0x5f0 <__floatsisf+0x12>
 5e2:	90 95       	com	r25
 5e4:	80 95       	com	r24
 5e6:	70 95       	com	r23
 5e8:	61 95       	neg	r22
 5ea:	7f 4f       	sbci	r23, 0xFF	; 255
 5ec:	8f 4f       	sbci	r24, 0xFF	; 255
 5ee:	9f 4f       	sbci	r25, 0xFF	; 255
 5f0:	99 23       	and	r25, r25
 5f2:	a9 f0       	breq	.+42     	; 0x61e <__floatsisf+0x40>
 5f4:	f9 2f       	mov	r31, r25
 5f6:	96 e9       	ldi	r25, 0x96	; 150
 5f8:	bb 27       	eor	r27, r27
 5fa:	93 95       	inc	r25
 5fc:	f6 95       	lsr	r31
 5fe:	87 95       	ror	r24
 600:	77 95       	ror	r23
 602:	67 95       	ror	r22
 604:	b7 95       	ror	r27
 606:	f1 11       	cpse	r31, r1
 608:	f8 cf       	rjmp	.-16     	; 0x5fa <__floatsisf+0x1c>
 60a:	fa f4       	brpl	.+62     	; 0x64a <__floatsisf+0x6c>
 60c:	bb 0f       	add	r27, r27
 60e:	11 f4       	brne	.+4      	; 0x614 <__floatsisf+0x36>
 610:	60 ff       	sbrs	r22, 0
 612:	1b c0       	rjmp	.+54     	; 0x64a <__floatsisf+0x6c>
 614:	6f 5f       	subi	r22, 0xFF	; 255
 616:	7f 4f       	sbci	r23, 0xFF	; 255
 618:	8f 4f       	sbci	r24, 0xFF	; 255
 61a:	9f 4f       	sbci	r25, 0xFF	; 255
 61c:	16 c0       	rjmp	.+44     	; 0x64a <__floatsisf+0x6c>
 61e:	88 23       	and	r24, r24
 620:	11 f0       	breq	.+4      	; 0x626 <__floatsisf+0x48>
 622:	96 e9       	ldi	r25, 0x96	; 150
 624:	11 c0       	rjmp	.+34     	; 0x648 <__floatsisf+0x6a>
 626:	77 23       	and	r23, r23
 628:	21 f0       	breq	.+8      	; 0x632 <__floatsisf+0x54>
 62a:	9e e8       	ldi	r25, 0x8E	; 142
 62c:	87 2f       	mov	r24, r23
 62e:	76 2f       	mov	r23, r22
 630:	05 c0       	rjmp	.+10     	; 0x63c <__floatsisf+0x5e>
 632:	66 23       	and	r22, r22
 634:	71 f0       	breq	.+28     	; 0x652 <__floatsisf+0x74>
 636:	96 e8       	ldi	r25, 0x86	; 134
 638:	86 2f       	mov	r24, r22
 63a:	70 e0       	ldi	r23, 0x00	; 0
 63c:	60 e0       	ldi	r22, 0x00	; 0
 63e:	2a f0       	brmi	.+10     	; 0x64a <__floatsisf+0x6c>
 640:	9a 95       	dec	r25
 642:	66 0f       	add	r22, r22
 644:	77 1f       	adc	r23, r23
 646:	88 1f       	adc	r24, r24
 648:	da f7       	brpl	.-10     	; 0x640 <__floatsisf+0x62>
 64a:	88 0f       	add	r24, r24
 64c:	96 95       	lsr	r25
 64e:	87 95       	ror	r24
 650:	97 f9       	bld	r25, 7
 652:	08 95       	ret

00000654 <__fp_cmp>:
 654:	99 0f       	add	r25, r25
 656:	00 08       	sbc	r0, r0
 658:	55 0f       	add	r21, r21
 65a:	aa 0b       	sbc	r26, r26
 65c:	e0 e8       	ldi	r30, 0x80	; 128
 65e:	fe ef       	ldi	r31, 0xFE	; 254
 660:	16 16       	cp	r1, r22
 662:	17 06       	cpc	r1, r23
 664:	e8 07       	cpc	r30, r24
 666:	f9 07       	cpc	r31, r25
 668:	c0 f0       	brcs	.+48     	; 0x69a <__fp_cmp+0x46>
 66a:	12 16       	cp	r1, r18
 66c:	13 06       	cpc	r1, r19
 66e:	e4 07       	cpc	r30, r20
 670:	f5 07       	cpc	r31, r21
 672:	98 f0       	brcs	.+38     	; 0x69a <__fp_cmp+0x46>
 674:	62 1b       	sub	r22, r18
 676:	73 0b       	sbc	r23, r19
 678:	84 0b       	sbc	r24, r20
 67a:	95 0b       	sbc	r25, r21
 67c:	39 f4       	brne	.+14     	; 0x68c <__fp_cmp+0x38>
 67e:	0a 26       	eor	r0, r26
 680:	61 f0       	breq	.+24     	; 0x69a <__fp_cmp+0x46>
 682:	23 2b       	or	r18, r19
 684:	24 2b       	or	r18, r20
 686:	25 2b       	or	r18, r21
 688:	21 f4       	brne	.+8      	; 0x692 <__fp_cmp+0x3e>
 68a:	08 95       	ret
 68c:	0a 26       	eor	r0, r26
 68e:	09 f4       	brne	.+2      	; 0x692 <__fp_cmp+0x3e>
 690:	a1 40       	sbci	r26, 0x01	; 1
 692:	a6 95       	lsr	r26
 694:	8f ef       	ldi	r24, 0xFF	; 255
 696:	81 1d       	adc	r24, r1
 698:	81 1d       	adc	r24, r1
 69a:	08 95       	ret

0000069c <__gesf2>:
 69c:	db df       	rcall	.-74     	; 0x654 <__fp_cmp>
 69e:	08 f4       	brcc	.+2      	; 0x6a2 <__gesf2+0x6>
 6a0:	8f ef       	ldi	r24, 0xFF	; 255
 6a2:	08 95       	ret

000006a4 <__udivmodhi4>:
 6a4:	aa 1b       	sub	r26, r26
 6a6:	bb 1b       	sub	r27, r27
 6a8:	51 e1       	ldi	r21, 0x11	; 17
 6aa:	07 c0       	rjmp	.+14     	; 0x6ba <__udivmodhi4_ep>

000006ac <__udivmodhi4_loop>:
 6ac:	aa 1f       	adc	r26, r26
 6ae:	bb 1f       	adc	r27, r27
 6b0:	a6 17       	cp	r26, r22
 6b2:	b7 07       	cpc	r27, r23
 6b4:	10 f0       	brcs	.+4      	; 0x6ba <__udivmodhi4_ep>
 6b6:	a6 1b       	sub	r26, r22
 6b8:	b7 0b       	sbc	r27, r23

000006ba <__udivmodhi4_ep>:
 6ba:	88 1f       	adc	r24, r24
 6bc:	99 1f       	adc	r25, r25
 6be:	5a 95       	dec	r21
 6c0:	a9 f7       	brne	.-22     	; 0x6ac <__udivmodhi4_loop>
 6c2:	80 95       	com	r24
 6c4:	90 95       	com	r25
 6c6:	bc 01       	movw	r22, r24
 6c8:	cd 01       	movw	r24, r26
 6ca:	08 95       	ret

000006cc <_exit>:
 6cc:	f8 94       	cli

000006ce <__stop_program>:
 6ce:	ff cf       	rjmp	.-2      	; 0x6ce <__stop_program>
